target datalayout = "e-m:e-p270:32:32-p271:32:32-p272:64:64-i64:64-i128:128-f80:128-n8:16:32:64-S128"
target triple = "x86_64-pc-linux-gnu"

%struct.nstime_t = type { i64, i32 }
%struct._packet_info = type { ptr, ptr, i32, i32, %struct.nstime_t, %struct.nstime_t, %struct.nstime_t, i8, ptr, ptr, ptr, ptr, %struct._address, %struct._address, %struct._address, %struct._address, %struct._address, %struct._address, i32, ptr, i8, [3 x i8], %struct.anon, i32, i32, i32, i32, ptr, i8, ptr, ptr, i16, i16, i32, i32, i16, i32, i32, ptr, ptr, ptr, i8, i8, i16, i16, i16, i32, i16, i16, ptr, ptr, ptr, ptr, ptr, i32, i32 }
%struct._address = type { i32, i32, ptr, ptr }
%struct.anon = type { i8, [3 x i8] }

@hf_afp_vol_name = internal global i32 0, align 4
@.str.250 = private unnamed_addr constant [7 x i8] c"Volume\00", align 1
@hf_afp_vol_flag = internal global i32 0, align 4
@hf_afp_server_time = internal global i32 0, align 4
@ett_afp_server_vol = internal global i32 0, align 4
@ett_afp_vol_list = internal global i32 0, align 4
@ett_afp_vol_flag = internal global i32 0, align 4
@.str.1064 = private unnamed_addr constant [13 x i8] c"Unknown type\00", align 1
@dissect_reply_afp_get_server_param.flags = internal constant [3 x ptr] [ptr @hf_afp_vol_flag_passwd, ptr @hf_afp_vol_flag_has_config, ptr null], align 16
@.str.1083 = private unnamed_addr constant [13 x i8] c"Volumes : %d\00", align 1
@.str.1084 = private unnamed_addr constant [3 x i8] c"%s\00", align 1

; Function Attrs: null_pointer_is_valid sspstrong uwtable
define internal ptr @get_name(ptr noundef %0, ptr noundef %1, i32 noundef %2, i32 noundef %3) #1 {
  %5 = alloca ptr, align 8
  %6 = alloca ptr, align 8
  %7 = alloca i32, align 4
  %8 = alloca i32, align 4
  %9 = alloca i32, align 4
  %10 = alloca ptr, align 8
  store ptr %0, ptr %5, align 8
  store ptr %1, ptr %6, align 8
  store i32 %2, ptr %7, align 4
  store i32 %3, ptr %8, align 4
  call void @llvm.lifetime.start.p0(i64 4, ptr %9) #8
  call void @llvm.lifetime.start.p0(i64 8, ptr %10) #8
  %11 = load i32, ptr %8, align 4
  switch i32 %11, label %37 [
    i32 1, label %12
    i32 2, label %12
    i32 3, label %24
  ]

12:                                               ; preds = %4, %4
  %13 = load ptr, ptr %6, align 8
  %14 = load i32, ptr %7, align 4
  %15 = call zeroext i8 @tvb_get_uint8(ptr noundef %13, i32 noundef %14)
  %16 = zext i8 %15 to i32
  store i32 %16, ptr %9, align 4
  %17 = load i32, ptr %7, align 4
  %18 = add i32 %17, 1
  store i32 %18, ptr %7, align 4
  %19 = load ptr, ptr %5, align 8
  %20 = load ptr, ptr %6, align 8
  %21 = load i32, ptr %7, align 4
  %22 = load i32, ptr %9, align 4
  %23 = call ptr @tvb_format_text(ptr noundef %19, ptr noundef %20, i32 noundef %21, i32 noundef %22)
  store ptr %23, ptr %10, align 8
  br label %38

24:                                               ; preds = %4
  %25 = load ptr, ptr %6, align 8
  %26 = load i32, ptr %7, align 4
  %27 = add i32 %26, 4
  %28 = call zeroext i16 @tvb_get_ntohs(ptr noundef %25, i32 noundef %27)
  %29 = zext i16 %28 to i32
  store i32 %29, ptr %9, align 4
  %30 = load i32, ptr %7, align 4
  %31 = add i32 %30, 6
  store i32 %31, ptr %7, align 4
  %32 = load ptr, ptr %5, align 8
  %33 = load ptr, ptr %6, align 8
  %34 = load i32, ptr %7, align 4
  %35 = load i32, ptr %9, align 4
  %36 = call ptr @tvb_format_text(ptr noundef %32, ptr noundef %33, i32 noundef %34, i32 noundef %35)
  store ptr %36, ptr %10, align 8
  br label %38

37:                                               ; preds = %4
  store ptr @.str.1064, ptr %10, align 8
  br label %38

38:                                               ; preds = %37, %24, %12
  %39 = load ptr, ptr %10, align 8
  call void @llvm.lifetime.end.p0(i64 8, ptr %10) #8
  call void @llvm.lifetime.end.p0(i64 4, ptr %9) #8
  ret ptr %39
}

; Function Attrs: null_pointer_is_valid sspstrong uwtable
define internal void @print_date(ptr noundef %0, i32 noundef %1, ptr noundef %2, i32 noundef %3) #1 {
  %5 = alloca ptr, align 8
  %6 = alloca i32, align 4
  %7 = alloca ptr, align 8
  %8 = alloca i32, align 4
  %9 = alloca i64, align 8
  %10 = alloca %struct.nstime_t, align 8
  store ptr %0, ptr %5, align 8
  store i32 %1, ptr %6, align 4
  store ptr %2, ptr %7, align 8
  store i32 %3, ptr %8, align 4
  call void @llvm.lifetime.start.p0(i64 8, ptr %9) #8
  %11 = load ptr, ptr %7, align 8
  %12 = load i32, ptr %8, align 4
  %13 = call i32 @tvb_get_ntohl(ptr noundef %11, i32 noundef %12)
  %14 = zext i32 %13 to i64
  store i64 %14, ptr %9, align 8
  call void @llvm.lifetime.start.p0(i64 16, ptr %10) #8
  %15 = load i64, ptr %9, align 8
  %16 = add i64 %15, 946684800
  %17 = getelementptr inbounds nuw %struct.nstime_t, ptr %10, i32 0, i32 0
  store i64 %16, ptr %17, align 8
  %18 = getelementptr inbounds nuw %struct.nstime_t, ptr %10, i32 0, i32 1
  store i32 0, ptr %18, align 8
  %19 = load ptr, ptr %5, align 8
  %20 = load i32, ptr %6, align 4
  %21 = load ptr, ptr %7, align 8
  %22 = load i32, ptr %8, align 4
  %23 = call ptr @proto_tree_add_time(ptr noundef %19, i32 noundef %20, ptr noundef %21, i32 noundef %22, i32 noundef 4, ptr noundef %10)
  call void @llvm.lifetime.end.p0(i64 16, ptr %10) #8
  call void @llvm.lifetime.end.p0(i64 8, ptr %9) #8
  ret void
}

; Function Attrs: null_pointer_is_valid sspstrong uwtable
define internal i32 @dissect_reply_afp_get_server_param(ptr noundef %0, ptr noundef %1, ptr noundef %2, i32 noundef %3) #1 {
  %5 = alloca i32, align 4
  %6 = alloca ptr, align 8
  %7 = alloca ptr, align 8
  %8 = alloca ptr, align 8
  %9 = alloca i32, align 4
  %10 = alloca i8, align 1
  %11 = alloca i8, align 1
  %12 = alloca i8, align 1
  %13 = alloca ptr, align 8
  %14 = alloca ptr, align 8
  %15 = alloca i32, align 4
  %16 = alloca ptr, align 8
  store ptr %0, ptr %6, align 8
  store ptr %1, ptr %7, align 8
  store ptr %2, ptr %8, align 8
  store i32 %3, ptr %9, align 4
  call void @llvm.lifetime.start.p0(i64 1, ptr %10) #8
  call void @llvm.lifetime.start.p0(i64 1, ptr %11) #8
  call void @llvm.lifetime.start.p0(i64 1, ptr %12) #8
  call void @llvm.lifetime.start.p0(i64 8, ptr %13) #8
  call void @llvm.lifetime.start.p0(i64 8, ptr %14) #8
  %17 = load ptr, ptr %8, align 8
  %18 = icmp ne ptr %17, null
  br i1 %18, label %21, label %19

19:                                               ; preds = %4
  %20 = load i32, ptr %9, align 4
  store i32 %20, ptr %5, align 4
  store i32 1, ptr %15, align 4
  br label %92

21:                                               ; preds = %4
  %22 = load ptr, ptr %8, align 8
  %23 = load i32, ptr @hf_afp_server_time, align 4
  %24 = load ptr, ptr %6, align 8
  %25 = load i32, ptr %9, align 4
  call void @print_date(ptr noundef %22, i32 noundef %23, ptr noundef %24, i32 noundef %25)
  %26 = load i32, ptr %9, align 4
  %27 = add i32 %26, 4
  store i32 %27, ptr %9, align 4
  %28 = load ptr, ptr %6, align 8
  %29 = load i32, ptr %9, align 4
  %30 = call zeroext i8 @tvb_get_uint8(ptr noundef %28, i32 noundef %29)
  store i8 %30, ptr %10, align 1
  %31 = load ptr, ptr %8, align 8
  %32 = load ptr, ptr %6, align 8
  %33 = load i32, ptr %9, align 4
  %34 = load i32, ptr @ett_afp_server_vol, align 4
  %35 = load i8, ptr %10, align 1
  %36 = zext i8 %35 to i32
  %37 = call ptr (ptr, ptr, i32, i32, i32, ptr, ptr, ...) @proto_tree_add_subtree_format(ptr noundef %31, ptr noundef %32, i32 noundef %33, i32 noundef 1, i32 noundef %34, ptr noundef null, ptr noundef @.str.1083, i32 noundef %36)
  store ptr %37, ptr %13, align 8
  %38 = load i32, ptr %9, align 4
  %39 = add i32 %38, 1
  store i32 %39, ptr %9, align 4
  store i8 0, ptr %12, align 1
  br label %40

40:                                               ; preds = %87, %21
  %41 = load i8, ptr %12, align 1
  %42 = zext i8 %41 to i32
  %43 = load i8, ptr %10, align 1
  %44 = zext i8 %43 to i32
  %45 = icmp slt i32 %42, %44
  br i1 %45, label %46, label %90

46:                                               ; preds = %40
  call void @llvm.lifetime.start.p0(i64 8, ptr %16) #8
  %47 = load ptr, ptr %13, align 8
  %48 = load ptr, ptr %6, align 8
  %49 = load i32, ptr %9, align 4
  %50 = load i32, ptr @ett_afp_vol_list, align 4
  %51 = call ptr @proto_tree_add_subtree(ptr noundef %47, ptr noundef %48, i32 noundef %49, i32 noundef -1, i32 noundef %50, ptr noundef null, ptr noundef @.str.250)
  store ptr %51, ptr %8, align 8
  %52 = load ptr, ptr %8, align 8
  %53 = load ptr, ptr %6, align 8
  %54 = load i32, ptr %9, align 4
  %55 = load i32, ptr @hf_afp_vol_flag, align 4
  %56 = load i32, ptr @ett_afp_vol_flag, align 4
  %57 = call ptr @proto_tree_add_bitmask(ptr noundef %52, ptr noundef %53, i32 noundef %54, i32 noundef %55, i32 noundef %56, ptr noundef @dissect_reply_afp_get_server_param.flags, i32 noundef 0)
  store ptr %57, ptr %14, align 8
  %58 = load i32, ptr %9, align 4
  %59 = add i32 %58, 1
  store i32 %59, ptr %9, align 4
  %60 = load ptr, ptr %6, align 8
  %61 = load i32, ptr %9, align 4
  %62 = call zeroext i8 @tvb_get_uint8(ptr noundef %60, i32 noundef %61)
  %63 = zext i8 %62 to i32
  %64 = add i32 %63, 1
  %65 = trunc i32 %64 to i8
  store i8 %65, ptr %11, align 1
  %66 = load ptr, ptr %7, align 8
  %67 = getelementptr inbounds nuw %struct._packet_info, ptr %66, i32 0, i32 51
  %68 = load ptr, ptr %67, align 8
  %69 = load ptr, ptr %6, align 8
  %70 = load i32, ptr %9, align 4
  %71 = call ptr @get_name(ptr noundef %68, ptr noundef %69, i32 noundef %70, i32 noundef 2)
  store ptr %71, ptr %16, align 8
  %72 = load ptr, ptr %14, align 8
  %73 = load ptr, ptr %16, align 8
  call void (ptr, ptr, ...) @proto_item_set_text(ptr noundef %72, ptr noundef @.str.1084, ptr noundef %73)
  %74 = load ptr, ptr %14, align 8
  %75 = load i8, ptr %11, align 1
  %76 = zext i8 %75 to i32
  %77 = add i32 %76, 1
  call void @proto_item_set_len(ptr noundef %74, i32 noundef %77)
  %78 = load ptr, ptr %8, align 8
  %79 = load i32, ptr @hf_afp_vol_name, align 4
  %80 = load ptr, ptr %6, align 8
  %81 = load i32, ptr %9, align 4
  %82 = call ptr @proto_tree_add_item(ptr noundef %78, i32 noundef %79, ptr noundef %80, i32 noundef %81, i32 noundef 1, i32 noundef 2)
  %83 = load i8, ptr %11, align 1
  %84 = zext i8 %83 to i32
  %85 = load i32, ptr %9, align 4
  %86 = add i32 %85, %84
  store i32 %86, ptr %9, align 4
  call void @llvm.lifetime.end.p0(i64 8, ptr %16) #8
  br label %87

87:                                               ; preds = %46
  %88 = load i8, ptr %12, align 1
  %89 = add i8 %88, 1
  store i8 %89, ptr %12, align 1
  br label %40, !llvm.loop !13

90:                                               ; preds = %40
  %91 = load i32, ptr %9, align 4
  store i32 %91, ptr %5, align 4
  store i32 1, ptr %15, align 4
  br label %92

92:                                               ; preds = %90, %19
  call void @llvm.lifetime.end.p0(i64 8, ptr %14) #8
  call void @llvm.lifetime.end.p0(i64 8, ptr %13) #8
  call void @llvm.lifetime.end.p0(i64 1, ptr %12) #8
  call void @llvm.lifetime.end.p0(i64 1, ptr %11) #8
  call void @llvm.lifetime.end.p0(i64 1, ptr %10) #8
  %93 = load i32, ptr %5, align 4
  ret i32 %93
}