; Function Attrs: null_pointer_is_valid sspstrong uwtable
define internal fastcc i32 @dissect_reply_afp_get_server_param(ptr noundef %0, ptr noundef readonly captures(none) %1, ptr noundef %2) unnamed_addr #1 {
  %4 = alloca %struct.nstime_t, align 8
  %.not = icmp eq ptr %2, null
  br i1 %.not, label %.loopexit, label %5

5:                                                ; preds = %3
  %6 = load i32, ptr @hf_afp_server_time, align 4
  %7 = tail call i32 @tvb_get_ntohl(ptr noundef %0, i32 noundef 0)
  %8 = zext i32 %7 to i64
  call void @llvm.lifetime.start.p0(i64 16, ptr nonnull %4) #8
  %9 = add nuw nsw i64 %8, 946684800
  store i64 %9, ptr %4, align 8
  %10 = getelementptr inbounds nuw i8, ptr %4, i64 8
  store i32 0, ptr %10, align 8
  %11 = call ptr @proto_tree_add_time(ptr noundef nonnull %2, i32 noundef %6, ptr noundef %0, i32 noundef 0, i32 noundef 4, ptr noundef nonnull %4)
  call void @llvm.lifetime.end.p0(i64 16, ptr nonnull %4) #8
  %12 = call zeroext i8 @tvb_get_uint8(ptr noundef %0, i32 noundef 4)
  %13 = load i32, ptr @ett_afp_server_vol, align 4
  %14 = zext i8 %12 to i32
  %15 = call ptr (ptr, ptr, i32, i32, i32, ptr, ptr, ...) @proto_tree_add_subtree_format(ptr noundef nonnull %2, ptr noundef %0, i32 noundef 4, i32 noundef 1, i32 noundef %13, ptr noundef null, ptr noundef nonnull @.str.1083, i32 noundef %14)
  %.not43 = icmp eq i8 %12, 0
  br i1 %.not43, label %.loopexit, label %.lr.ph

.lr.ph:                                           ; preds = %5
  %16 = getelementptr inbounds nuw i8, ptr %1, i64 408
  br label %17

17:                                               ; preds = %.lr.ph, %17
  %.03842 = phi i32 [ 5, %.lr.ph ], [ %35, %17 ]
  %.03941 = phi i8 [ 0, %.lr.ph ], [ %36, %17 ]
  %18 = load i32, ptr @ett_afp_vol_list, align 4
  %19 = call ptr @proto_tree_add_subtree(ptr noundef %15, ptr noundef %0, i32 noundef %.03842, i32 noundef -1, i32 noundef %18, ptr noundef null, ptr noundef nonnull @.str.250)
  %20 = load i32, ptr @hf_afp_vol_flag, align 4
  %21 = load i32, ptr @ett_afp_vol_flag, align 4
  %22 = call ptr @proto_tree_add_bitmask(ptr noundef %19, ptr noundef %0, i32 noundef %.03842, i32 noundef %20, i32 noundef %21, ptr noundef nonnull @dissect_reply_afp_get_server_param.flags, i32 noundef 0)
  %23 = add i32 %.03842, 1
  %24 = call zeroext i8 @tvb_get_uint8(ptr noundef %0, i32 noundef %23)
  %25 = add i8 %24, 1
  %26 = load ptr, ptr %16, align 8
  %27 = call zeroext i8 @tvb_get_uint8(ptr noundef %0, i32 noundef %23)
  %28 = zext i8 %27 to i32
  %29 = add i32 %.03842, 2
  %30 = call ptr @tvb_format_text(ptr noundef %26, ptr noundef %0, i32 noundef %29, i32 noundef %28)
  call void (ptr, ptr, ...) @proto_item_set_text(ptr noundef %22, ptr noundef nonnull @.str.1084, ptr noundef %30)
  %31 = zext i8 %25 to i32
  %32 = add nuw nsw i32 %31, 1
  call void @proto_item_set_len(ptr noundef %22, i32 noundef %32)
  %33 = load i32, ptr @hf_afp_vol_name, align 4
  %34 = call ptr @proto_tree_add_item(ptr noundef %19, i32 noundef %33, ptr noundef %0, i32 noundef %23, i32 noundef 1, i32 noundef 2)
  %35 = add i32 %23, %31
  %36 = add nuw i8 %.03941, 1
  %exitcond.not = icmp eq i8 %36, %12
  br i1 %exitcond.not, label %.loopexit, label %17, !llvm.loop !13

.loopexit:                                        ; preds = %17, %5, %3
  %.0 = phi i32 [ 0, %3 ], [ 5, %5 ], [ %35, %17 ]
  ret i32 %.0
}